target datalayout = "e-m:e-p270:32:32-p271:32:32-p272:64:64-i64:64-i128:128-f80:128-n8:16:32:64-S128"
target triple = "x86_64-pc-linux-gnu"

%struct.b2Vec2 = type { float, float }
%struct.b2BodyId = type { i32, i16, i16 }
%struct.b2JointId = type { i32, i16, i16 }
%struct.b2Rot = type { float, float }
%struct.b2WorldId = type { i16, i16 }
%struct.b2ShapeDef = type { ptr, float, float, float, float, i32, float, %struct.b2Filter, i32, i8, i8, i8, i8, i8, i8, i32 }
%struct.b2Filter = type { i64, i64, i32 }
%struct.b2RevoluteJointDef = type { %struct.b2BodyId, %struct.b2BodyId, %struct.b2Vec2, %struct.b2Vec2, float, i8, float, float, i8, float, float, i8, float, float, float, i8, ptr, i32 }
%struct.b2BodyDef = type { i32, %struct.b2Vec2, %struct.b2Rot, %struct.b2Vec2, float, float, float, float, float, ptr, ptr, i8, i8, i8, i8, i8, i8, i32 }
%struct.b2ShapeId = type { i32, i16, i16 }
%struct.b2Polygon = type { [8 x %struct.b2Vec2], [8 x %struct.b2Vec2], %struct.b2Vec2, float, i32 }

@b2Rot_identity = internal constant %struct.b2Rot { float 1.000000e+00, float 0.000000e+00 }, align 4

; Function Attrs: nounwind uwtable
define void @CreateTumbler(i32 %0) #6 {
  %2 = alloca %struct.b2WorldId, align 2
  %3 = alloca %struct.b2BodyId, align 4
  %4 = alloca %struct.b2BodyDef, align 8
  %5 = alloca %struct.b2BodyId, align 4
  %6 = alloca %struct.b2BodyDef, align 8
  %7 = alloca %struct.b2Vec2, align 4
  %8 = alloca %struct.b2BodyId, align 4
  %9 = alloca %struct.b2ShapeDef, align 8
  %10 = alloca %struct.b2Polygon, align 4
  %11 = alloca %struct.b2Polygon, align 4
  %12 = alloca %struct.b2Vec2, align 4
  %13 = alloca %struct.b2ShapeId, align 4
  %14 = alloca %struct.b2Polygon, align 4
  %15 = alloca %struct.b2Vec2, align 4
  %16 = alloca %struct.b2ShapeId, align 4
  %17 = alloca %struct.b2Polygon, align 4
  %18 = alloca %struct.b2Vec2, align 4
  %19 = alloca %struct.b2ShapeId, align 4
  %20 = alloca %struct.b2Polygon, align 4
  %21 = alloca %struct.b2Vec2, align 4
  %22 = alloca %struct.b2ShapeId, align 4
  %23 = alloca float, align 4
  %24 = alloca %struct.b2RevoluteJointDef, align 8
  %25 = alloca %struct.b2Vec2, align 4
  %26 = alloca %struct.b2Vec2, align 4
  %27 = alloca %struct.b2JointId, align 4
  %28 = alloca i32, align 4
  %29 = alloca %struct.b2Polygon, align 4
  %30 = alloca %struct.b2BodyDef, align 8
  %31 = alloca %struct.b2ShapeDef, align 8
  %32 = alloca float, align 4
  %33 = alloca i32, align 4
  %34 = alloca i32, align 4
  %35 = alloca float, align 4
  %36 = alloca i32, align 4
  %37 = alloca %struct.b2Vec2, align 4
  %38 = alloca %struct.b2BodyId, align 4
  %39 = alloca %struct.b2ShapeId, align 4
  store i32 %0, ptr %2, align 2
  call void @llvm.lifetime.start.p0(i64 8, ptr %3) #9
  call void @llvm.lifetime.start.p0(i64 80, ptr %4) #9
  call void @b2DefaultBodyDef(ptr dead_on_unwind writable sret(%struct.b2BodyDef) align 8 %4)
  call void @llvm.lifetime.start.p0(i64 8, ptr %5) #9
  %40 = load i32, ptr %2, align 2
  %41 = call i64 @b2CreateBody(i32 %40, ptr noundef %4)
  store i64 %41, ptr %5, align 4
  call void @llvm.memcpy.p0.p0.i64(ptr align 4 %3, ptr align 4 %5, i64 8, i1 false), !tbaa.struct !27
  call void @llvm.lifetime.end.p0(i64 8, ptr %5) #9
  call void @llvm.lifetime.end.p0(i64 80, ptr %4) #9
  call void @llvm.lifetime.start.p0(i64 80, ptr %6) #9
  call void @b2DefaultBodyDef(ptr dead_on_unwind writable sret(%struct.b2BodyDef) align 8 %6)
  %42 = getelementptr inbounds nuw %struct.b2BodyDef, ptr %6, i32 0, i32 0
  store i32 2, ptr %42, align 8, !tbaa !19
  %43 = getelementptr inbounds nuw %struct.b2BodyDef, ptr %6, i32 0, i32 1
  %44 = getelementptr inbounds nuw %struct.b2Vec2, ptr %7, i32 0, i32 0
  store float 0.000000e+00, ptr %44, align 4, !tbaa !24
  %45 = getelementptr inbounds nuw %struct.b2Vec2, ptr %7, i32 0, i32 1
  store float 1.000000e+01, ptr %45, align 4, !tbaa !25
  call void @llvm.memcpy.p0.p0.i64(ptr align 4 %43, ptr align 4 %7, i64 8, i1 false), !tbaa.struct !26
  call void @llvm.lifetime.start.p0(i64 8, ptr %8) #9
  %46 = load i32, ptr %2, align 2
  %47 = call i64 @b2CreateBody(i32 %46, ptr noundef %6)
  store i64 %47, ptr %8, align 4
  call void @llvm.lifetime.start.p0(i64 72, ptr %9) #9
  call void @b2DefaultShapeDef(ptr dead_on_unwind writable sret(%struct.b2ShapeDef) align 8 %9)
  %48 = getelementptr inbounds nuw %struct.b2ShapeDef, ptr %9, i32 0, i32 6
  store float 5.000000e+01, ptr %48, align 4, !tbaa !10
  call void @llvm.lifetime.start.p0(i64 144, ptr %10) #9
  call void @llvm.lifetime.start.p0(i64 144, ptr %11) #9
  %49 = getelementptr inbounds nuw %struct.b2Vec2, ptr %12, i32 0, i32 0
  store float 1.000000e+01, ptr %49, align 4, !tbaa !24
  %50 = getelementptr inbounds nuw %struct.b2Vec2, ptr %12, i32 0, i32 1
  store float 0.000000e+00, ptr %50, align 4, !tbaa !25
  %51 = load <2 x float>, ptr %12, align 4
  %52 = load <2 x float>, ptr @b2Rot_identity, align 4
  call void @b2MakeOffsetBox(ptr dead_on_unwind writable sret(%struct.b2Polygon) align 4 %11, float noundef 5.000000e-01, float noundef 1.000000e+01, <2 x float> %51, <2 x float> %52)
  call void @llvm.memcpy.p0.p0.i64(ptr align 4 %10, ptr align 4 %11, i64 144, i1 false), !tbaa.struct !83
  call void @llvm.lifetime.end.p0(i64 144, ptr %11) #9
  %53 = load i64, ptr %8, align 4
  %54 = call i64 @b2CreatePolygonShape(i64 %53, ptr noundef %9, ptr noundef %10)
  store i64 %54, ptr %13, align 4
  call void @llvm.lifetime.start.p0(i64 144, ptr %14) #9
  %55 = getelementptr inbounds nuw %struct.b2Vec2, ptr %15, i32 0, i32 0
  store float -1.000000e+01, ptr %55, align 4, !tbaa !24
  %56 = getelementptr inbounds nuw %struct.b2Vec2, ptr %15, i32 0, i32 1
  store float 0.000000e+00, ptr %56, align 4, !tbaa !25
  %57 = load <2 x float>, ptr %15, align 4
  %58 = load <2 x float>, ptr @b2Rot_identity, align 4
  call void @b2MakeOffsetBox(ptr dead_on_unwind writable sret(%struct.b2Polygon) align 4 %14, float noundef 5.000000e-01, float noundef 1.000000e+01, <2 x float> %57, <2 x float> %58)
  call void @llvm.memcpy.p0.p0.i64(ptr align 4 %10, ptr align 4 %14, i64 144, i1 false), !tbaa.struct !83
  call void @llvm.lifetime.end.p0(i64 144, ptr %14) #9
  %59 = load i64, ptr %8, align 4
  %60 = call i64 @b2CreatePolygonShape(i64 %59, ptr noundef %9, ptr noundef %10)
  store i64 %60, ptr %16, align 4
  call void @llvm.lifetime.start.p0(i64 144, ptr %17) #9
  %61 = getelementptr inbounds nuw %struct.b2Vec2, ptr %18, i32 0, i32 0
  store float 0.000000e+00, ptr %61, align 4, !tbaa !24
  %62 = getelementptr inbounds nuw %struct.b2Vec2, ptr %18, i32 0, i32 1
  store float 1.000000e+01, ptr %62, align 4, !tbaa !25
  %63 = load <2 x float>, ptr %18, align 4
  %64 = load <2 x float>, ptr @b2Rot_identity, align 4
  call void @b2MakeOffsetBox(ptr dead_on_unwind writable sret(%struct.b2Polygon) align 4 %17, float noundef 1.000000e+01, float noundef 5.000000e-01, <2 x float> %63, <2 x float> %64)
  call void @llvm.memcpy.p0.p0.i64(ptr align 4 %10, ptr align 4 %17, i64 144, i1 false), !tbaa.struct !83
  call void @llvm.lifetime.end.p0(i64 144, ptr %17) #9
  %65 = load i64, ptr %8, align 4
  %66 = call i64 @b2CreatePolygonShape(i64 %65, ptr noundef %9, ptr noundef %10)
  store i64 %66, ptr %19, align 4
  call void @llvm.lifetime.start.p0(i64 144, ptr %20) #9
  %67 = getelementptr inbounds nuw %struct.b2Vec2, ptr %21, i32 0, i32 0
  store float 0.000000e+00, ptr %67, align 4, !tbaa !24
  %68 = getelementptr inbounds nuw %struct.b2Vec2, ptr %21, i32 0, i32 1
  store float -1.000000e+01, ptr %68, align 4, !tbaa !25
  %69 = load <2 x float>, ptr %21, align 4
  %70 = load <2 x float>, ptr @b2Rot_identity, align 4
  call void @b2MakeOffsetBox(ptr dead_on_unwind writable sret(%struct.b2Polygon) align 4 %20, float noundef 1.000000e+01, float noundef 5.000000e-01, <2 x float> %69, <2 x float> %70)
  call void @llvm.memcpy.p0.p0.i64(ptr align 4 %10, ptr align 4 %20, i64 144, i1 false), !tbaa.struct !83
  call void @llvm.lifetime.end.p0(i64 144, ptr %20) #9
  %71 = load i64, ptr %8, align 4
  %72 = call i64 @b2CreatePolygonShape(i64 %71, ptr noundef %9, ptr noundef %10)
  store i64 %72, ptr %22, align 4
  call void @llvm.lifetime.start.p0(i64 4, ptr %23) #9
  store float 2.500000e+01, ptr %23, align 4, !tbaa !18
  call void @llvm.lifetime.start.p0(i64 96, ptr %24) #9
  call void @b2DefaultRevoluteJointDef(ptr dead_on_unwind writable sret(%struct.b2RevoluteJointDef) align 8 %24)
  %73 = getelementptr inbounds nuw %struct.b2RevoluteJointDef, ptr %24, i32 0, i32 0
  call void @llvm.memcpy.p0.p0.i64(ptr align 8 %73, ptr align 4 %3, i64 8, i1 false), !tbaa.struct !27
  %74 = getelementptr inbounds nuw %struct.b2RevoluteJointDef, ptr %24, i32 0, i32 1
  call void @llvm.memcpy.p0.p0.i64(ptr align 8 %74, ptr align 4 %8, i64 8, i1 false), !tbaa.struct !27
  %75 = getelementptr inbounds nuw %struct.b2RevoluteJointDef, ptr %24, i32 0, i32 2
  %76 = getelementptr inbounds nuw %struct.b2Vec2, ptr %25, i32 0, i32 0
  store float 0.000000e+00, ptr %76, align 4, !tbaa !24
  %77 = getelementptr inbounds nuw %struct.b2Vec2, ptr %25, i32 0, i32 1
  store float 1.000000e+01, ptr %77, align 4, !tbaa !25
  call void @llvm.memcpy.p0.p0.i64(ptr align 8 %75, ptr align 4 %25, i64 8, i1 false), !tbaa.struct !26
  %78 = getelementptr inbounds nuw %struct.b2RevoluteJointDef, ptr %24, i32 0, i32 3
  %79 = getelementptr inbounds nuw %struct.b2Vec2, ptr %26, i32 0, i32 0
  store float 0.000000e+00, ptr %79, align 4, !tbaa !24
  %80 = getelementptr inbounds nuw %struct.b2Vec2, ptr %26, i32 0, i32 1
  store float 0.000000e+00, ptr %80, align 4, !tbaa !25
  call void @llvm.memcpy.p0.p0.i64(ptr align 8 %78, ptr align 4 %26, i64 8, i1 false), !tbaa.struct !26
  %81 = getelementptr inbounds nuw %struct.b2RevoluteJointDef, ptr %24, i32 0, i32 4
  store float 0.000000e+00, ptr %81, align 8, !tbaa !85
  %82 = load float, ptr %23, align 4, !tbaa !18
  %83 = fmul float 0x3F91DF46A0000000, %82
  %84 = getelementptr inbounds nuw %struct.b2RevoluteJointDef, ptr %24, i32 0, i32 13
  store float %83, ptr %84, align 4, !tbaa !69
  %85 = getelementptr inbounds nuw %struct.b2RevoluteJointDef, ptr %24, i32 0, i32 12
  store float 1.000000e+08, ptr %85, align 8, !tbaa !70
  %86 = getelementptr inbounds nuw %struct.b2RevoluteJointDef, ptr %24, i32 0, i32 11
  store i8 1, ptr %86, align 4, !tbaa !66
  %87 = load i32, ptr %2, align 2
  %88 = call i64 @b2CreateRevoluteJoint(i32 %87, ptr noundef %24)
  store i64 %88, ptr %27, align 4
  call void @llvm.lifetime.end.p0(i64 96, ptr %24) #9
  call void @llvm.lifetime.end.p0(i64 4, ptr %23) #9
  call void @llvm.lifetime.end.p0(i64 144, ptr %10) #9
  call void @llvm.lifetime.end.p0(i64 72, ptr %9) #9
  call void @llvm.lifetime.end.p0(i64 8, ptr %8) #9
  call void @llvm.lifetime.end.p0(i64 80, ptr %6) #9
  call void @llvm.lifetime.start.p0(i64 4, ptr %28) #9
  store i32 45, ptr %28, align 4, !tbaa !3
  call void @llvm.lifetime.start.p0(i64 144, ptr %29) #9
  call void @b2MakeBox(ptr dead_on_unwind writable sret(%struct.b2Polygon) align 4 %29, float noundef 1.250000e-01, float noundef 1.250000e-01)
  call void @llvm.lifetime.start.p0(i64 80, ptr %30) #9
  call void @b2DefaultBodyDef(ptr dead_on_unwind writable sret(%struct.b2BodyDef) align 8 %30)
  %89 = getelementptr inbounds nuw %struct.b2BodyDef, ptr %30, i32 0, i32 0
  store i32 2, ptr %89, align 8, !tbaa !19
  call void @llvm.lifetime.start.p0(i64 72, ptr %31) #9
  call void @b2DefaultShapeDef(ptr dead_on_unwind writable sret(%struct.b2ShapeDef) align 8 %31)
  call void @llvm.lifetime.start.p0(i64 4, ptr %32) #9
  %90 = load i32, ptr %28, align 4, !tbaa !3
  %91 = sitofp i32 %90 to float
  %92 = fmul float 0xBFC99999A0000000, %91
  %93 = fadd float %92, 1.000000e+01
  store float %93, ptr %32, align 4, !tbaa !18
  call void @llvm.lifetime.start.p0(i64 4, ptr %33) #9
  store i32 0, ptr %33, align 4, !tbaa !3
  br label %94

94:                                               ; preds = %126, %1
  %95 = load i32, ptr %33, align 4, !tbaa !3
  %96 = load i32, ptr %28, align 4, !tbaa !3
  %97 = icmp slt i32 %95, %96
  br i1 %97, label %99, label %98

98:                                               ; preds = %94
  store i32 2, ptr %34, align 4
  call void @llvm.lifetime.end.p0(i64 4, ptr %33) #9
  br label %129

99:                                               ; preds = %94
  call void @llvm.lifetime.start.p0(i64 4, ptr %35) #9
  %100 = load i32, ptr %28, align 4, !tbaa !3
  %101 = sitofp i32 %100 to float
  %102 = fmul float 0xBFC99999A0000000, %101
  store float %102, ptr %35, align 4, !tbaa !18
  call void @llvm.lifetime.start.p0(i64 4, ptr %36) #9
  store i32 0, ptr %36, align 4, !tbaa !3
  br label %103

103:                                              ; preds = %120, %99
  %104 = load i32, ptr %36, align 4, !tbaa !3
  %105 = load i32, ptr %28, align 4, !tbaa !3
  %106 = icmp slt i32 %104, %105
  br i1 %106, label %108, label %107

107:                                              ; preds = %103
  store i32 5, ptr %34, align 4
  call void @llvm.lifetime.end.p0(i64 4, ptr %36) #9
  br label %123

108:                                              ; preds = %103
  %109 = getelementptr inbounds nuw %struct.b2BodyDef, ptr %30, i32 0, i32 1
  %110 = getelementptr inbounds nuw %struct.b2Vec2, ptr %37, i32 0, i32 0
  %111 = load float, ptr %35, align 4, !tbaa !18
  store float %111, ptr %110, align 4, !tbaa !24
  %112 = getelementptr inbounds nuw %struct.b2Vec2, ptr %37, i32 0, i32 1
  %113 = load float, ptr %32, align 4, !tbaa !18
  store float %113, ptr %112, align 4, !tbaa !25
  call void @llvm.memcpy.p0.p0.i64(ptr align 4 %109, ptr align 4 %37, i64 8, i1 false), !tbaa.struct !26
  call void @llvm.lifetime.start.p0(i64 8, ptr %38) #9
  %114 = load i32, ptr %2, align 2
  %115 = call i64 @b2CreateBody(i32 %114, ptr noundef %30)
  store i64 %115, ptr %38, align 4
  %116 = load i64, ptr %38, align 4
  %117 = call i64 @b2CreatePolygonShape(i64 %116, ptr noundef %31, ptr noundef %29)
  store i64 %117, ptr %39, align 4
  %118 = load float, ptr %35, align 4, !tbaa !18
  %119 = fadd float %118, 0x3FD99999A0000000
  store float %119, ptr %35, align 4, !tbaa !18
  call void @llvm.lifetime.end.p0(i64 8, ptr %38) #9
  br label %120

120:                                              ; preds = %108
  %121 = load i32, ptr %36, align 4, !tbaa !3
  %122 = add nsw i32 %121, 1
  store i32 %122, ptr %36, align 4, !tbaa !3
  br label %103, !llvm.loop !86

123:                                              ; preds = %107
  %124 = load float, ptr %32, align 4, !tbaa !18
  %125 = fadd float %124, 0x3FD99999A0000000
  store float %125, ptr %32, align 4, !tbaa !18
  call void @llvm.lifetime.end.p0(i64 4, ptr %35) #9
  br label %126

126:                                              ; preds = %123
  %127 = load i32, ptr %33, align 4, !tbaa !3
  %128 = add nsw i32 %127, 1
  store i32 %128, ptr %33, align 4, !tbaa !3
  br label %94, !llvm.loop !87

129:                                              ; preds = %98
  call void @llvm.lifetime.end.p0(i64 4, ptr %32) #9
  call void @llvm.lifetime.end.p0(i64 72, ptr %31) #9
  call void @llvm.lifetime.end.p0(i64 80, ptr %30) #9
  call void @llvm.lifetime.end.p0(i64 144, ptr %29) #9
  call void @llvm.lifetime.end.p0(i64 4, ptr %28) #9
  call void @llvm.lifetime.end.p0(i64 8, ptr %3) #9
  ret void
}