; Function Attrs: nounwind uwtable
define void @CreateTumbler(i32 %0) local_unnamed_addr #6 {
  %2 = alloca %struct.b2BodyDef, align 8
  %3 = alloca %struct.b2BodyDef, align 8
  %4 = alloca %struct.b2ShapeDef, align 8
  %5 = alloca %struct.b2Polygon, align 4
  %6 = alloca %struct.b2Polygon, align 4
  %7 = alloca %struct.b2Polygon, align 4
  %8 = alloca %struct.b2Polygon, align 4
  %9 = alloca %struct.b2RevoluteJointDef, align 8
  %10 = alloca %struct.b2Polygon, align 4
  %11 = alloca %struct.b2BodyDef, align 8
  %12 = alloca %struct.b2ShapeDef, align 8
  call void @llvm.lifetime.start.p0(i64 80, ptr nonnull %2) #8
  call void @b2DefaultBodyDef(ptr dead_on_unwind nonnull writable sret(%struct.b2BodyDef) align 8 %2) #8
  %13 = call i64 @b2CreateBody(i32 %0, ptr noundef nonnull %2) #8
  call void @llvm.lifetime.end.p0(i64 80, ptr nonnull %2) #8
  call void @llvm.lifetime.start.p0(i64 80, ptr nonnull %3) #8
  call void @b2DefaultBodyDef(ptr dead_on_unwind nonnull writable sret(%struct.b2BodyDef) align 8 %3) #8
  store i32 2, ptr %3, align 8, !tbaa !15
  %14 = getelementptr inbounds nuw i8, ptr %3, i64 4
  store float 0.000000e+00, ptr %14, align 4, !tbaa !20
  %.sroa.236.0..sroa_idx = getelementptr inbounds nuw i8, ptr %3, i64 8
  store float 1.000000e+01, ptr %.sroa.236.0..sroa_idx, align 8, !tbaa !20
  %15 = call i64 @b2CreateBody(i32 %0, ptr noundef nonnull %3) #8
  call void @llvm.lifetime.start.p0(i64 72, ptr nonnull %4) #8
  call void @b2DefaultShapeDef(ptr dead_on_unwind nonnull writable sret(%struct.b2ShapeDef) align 8 %4) #8
  %16 = getelementptr inbounds nuw i8, ptr %4, i64 28
  store float 5.000000e+01, ptr %16, align 4, !tbaa !3
  call void @llvm.lifetime.start.p0(i64 144, ptr nonnull %5) #8
  call void @b2MakeOffsetBox(ptr dead_on_unwind nonnull writable sret(%struct.b2Polygon) align 4 %5, float noundef 5.000000e-01, float noundef 1.000000e+01, <2 x float> <float 1.000000e+01, float 0.000000e+00>, <2 x float> <float 1.000000e+00, float 0.000000e+00>) #8
  %17 = call i64 @b2CreatePolygonShape(i64 %15, ptr noundef nonnull %4, ptr noundef nonnull %5) #8
  call void @llvm.lifetime.start.p0(i64 144, ptr nonnull %6) #8
  call void @b2MakeOffsetBox(ptr dead_on_unwind nonnull writable sret(%struct.b2Polygon) align 4 %6, float noundef 5.000000e-01, float noundef 1.000000e+01, <2 x float> <float -1.000000e+01, float 0.000000e+00>, <2 x float> <float 1.000000e+00, float 0.000000e+00>) #8
  call void @llvm.memcpy.p0.p0.i64(ptr noundef nonnull align 4 dereferenceable(144) %5, ptr noundef nonnull align 4 dereferenceable(144) %6, i64 144, i1 false), !tbaa.struct !71
  call void @llvm.lifetime.end.p0(i64 144, ptr nonnull %6) #8
  %18 = call i64 @b2CreatePolygonShape(i64 %15, ptr noundef nonnull %4, ptr noundef nonnull %5) #8
  call void @llvm.lifetime.start.p0(i64 144, ptr nonnull %7) #8
  call void @b2MakeOffsetBox(ptr dead_on_unwind nonnull writable sret(%struct.b2Polygon) align 4 %7, float noundef 1.000000e+01, float noundef 5.000000e-01, <2 x float> <float 0.000000e+00, float 1.000000e+01>, <2 x float> <float 1.000000e+00, float 0.000000e+00>) #8
  call void @llvm.memcpy.p0.p0.i64(ptr noundef nonnull align 4 dereferenceable(144) %5, ptr noundef nonnull align 4 dereferenceable(144) %7, i64 144, i1 false), !tbaa.struct !71
  call void @llvm.lifetime.end.p0(i64 144, ptr nonnull %7) #8
  %19 = call i64 @b2CreatePolygonShape(i64 %15, ptr noundef nonnull %4, ptr noundef nonnull %5) #8
  call void @llvm.lifetime.start.p0(i64 144, ptr nonnull %8) #8
  call void @b2MakeOffsetBox(ptr dead_on_unwind nonnull writable sret(%struct.b2Polygon) align 4 %8, float noundef 1.000000e+01, float noundef 5.000000e-01, <2 x float> <float 0.000000e+00, float -1.000000e+01>, <2 x float> <float 1.000000e+00, float 0.000000e+00>) #8
  call void @llvm.memcpy.p0.p0.i64(ptr noundef nonnull align 4 dereferenceable(144) %5, ptr noundef nonnull align 4 dereferenceable(144) %8, i64 144, i1 false), !tbaa.struct !71
  call void @llvm.lifetime.end.p0(i64 144, ptr nonnull %8) #8
  %20 = call i64 @b2CreatePolygonShape(i64 %15, ptr noundef nonnull %4, ptr noundef nonnull %5) #8
  call void @llvm.lifetime.start.p0(i64 96, ptr nonnull %9) #8
  call void @b2DefaultRevoluteJointDef(ptr dead_on_unwind nonnull writable sret(%struct.b2RevoluteJointDef) align 8 %9) #8
  store i64 %13, ptr %9, align 8
  %21 = getelementptr inbounds nuw i8, ptr %9, i64 8
  store i64 %15, ptr %21, align 8
  %22 = getelementptr inbounds nuw i8, ptr %9, i64 16
  store float 0.000000e+00, ptr %22, align 8, !tbaa !20
  %.sroa.217.0..sroa_idx = getelementptr inbounds nuw i8, ptr %9, i64 20
  store float 1.000000e+01, ptr %.sroa.217.0..sroa_idx, align 4, !tbaa !20
  %23 = getelementptr inbounds nuw i8, ptr %9, i64 24
  store float 0.000000e+00, ptr %23, align 8, !tbaa !20
  %.sroa.215.0..sroa_idx = getelementptr inbounds nuw i8, ptr %9, i64 28
  store float 0.000000e+00, ptr %.sroa.215.0..sroa_idx, align 4, !tbaa !20
  %24 = getelementptr inbounds nuw i8, ptr %9, i64 32
  store float 0.000000e+00, ptr %24, align 8, !tbaa !74
  %25 = getelementptr inbounds nuw i8, ptr %9, i64 68
  store float 0x3FDBECDE60000000, ptr %25, align 4, !tbaa !61
  %26 = getelementptr inbounds nuw i8, ptr %9, i64 64
  store float 1.000000e+08, ptr %26, align 8, !tbaa !62
  %27 = getelementptr inbounds nuw i8, ptr %9, i64 60
  store i8 1, ptr %27, align 4, !tbaa !57
  %28 = call i64 @b2CreateRevoluteJoint(i32 %0, ptr noundef nonnull %9) #8
  call void @llvm.lifetime.end.p0(i64 96, ptr nonnull %9) #8
  call void @llvm.lifetime.end.p0(i64 144, ptr nonnull %5) #8
  call void @llvm.lifetime.end.p0(i64 72, ptr nonnull %4) #8
  call void @llvm.lifetime.end.p0(i64 80, ptr nonnull %3) #8
  call void @llvm.lifetime.start.p0(i64 144, ptr nonnull %10) #8
  call void @b2MakeBox(ptr dead_on_unwind nonnull writable sret(%struct.b2Polygon) align 4 %10, float noundef 1.250000e-01, float noundef 1.250000e-01) #8
  call void @llvm.lifetime.start.p0(i64 80, ptr nonnull %11) #8
  call void @b2DefaultBodyDef(ptr dead_on_unwind nonnull writable sret(%struct.b2BodyDef) align 8 %11) #8
  store i32 2, ptr %11, align 8, !tbaa !15
  call void @llvm.lifetime.start.p0(i64 72, ptr nonnull %12) #8
  call void @b2DefaultShapeDef(ptr dead_on_unwind nonnull writable sret(%struct.b2ShapeDef) align 8 %12) #8
  %29 = getelementptr inbounds nuw i8, ptr %11, i64 4
  %.sroa.2.0..sroa_idx = getelementptr inbounds nuw i8, ptr %11, i64 8
  br label %.preheader

.preheader:                                       ; preds = %1, %31
  %.04449 = phi i32 [ 0, %1 ], [ %33, %31 ]
  %.04548 = phi float [ 1.000000e+00, %1 ], [ %32, %31 ]
  br label %34

30:                                               ; preds = %31
  call void @llvm.lifetime.end.p0(i64 72, ptr nonnull %12) #8
  call void @llvm.lifetime.end.p0(i64 80, ptr nonnull %11) #8
  call void @llvm.lifetime.end.p0(i64 144, ptr nonnull %10) #8
  ret void

31:                                               ; preds = %34
  %32 = fadd float %.04548, 0x3FD99999A0000000
  %33 = add nuw nsw i32 %.04449, 1
  %exitcond50.not = icmp eq i32 %33, 45
  br i1 %exitcond50.not, label %30, label %.preheader, !llvm.loop !75

34:                                               ; preds = %.preheader, %34
  %.047 = phi i32 [ 0, %.preheader ], [ %38, %34 ]
  %.04346 = phi float [ -9.000000e+00, %.preheader ], [ %37, %34 ]
  store float %.04346, ptr %29, align 4, !tbaa !20
  store float %.04548, ptr %.sroa.2.0..sroa_idx, align 8, !tbaa !20
  %35 = call i64 @b2CreateBody(i32 %0, ptr noundef nonnull %11) #8
  %36 = call i64 @b2CreatePolygonShape(i64 %35, ptr noundef nonnull %12, ptr noundef nonnull %10) #8
  %37 = fadd float %.04346, 0x3FD99999A0000000
  %38 = add nuw nsw i32 %.047, 1
  %exitcond.not = icmp eq i32 %38, 45
  br i1 %exitcond.not, label %31, label %34, !llvm.loop !76
}